MODULE windows x86 D57F52D4A2FD56244C4C44205044422E1 ShowSSEConfig.pdb
INFO CODE_ID 6A4B9A365000 ShowSSEConfig.exe
INFO GENERATOR mozilla/dump_syms 2.3.7
FUNC 1000 17f 0 wmain()
FUNC 1180 a 0 __local_stdio_printf_options()
FUNC 1190 62 0 printf(char const* const, <NoType>)
FUNC 11f2 6 0 __local_stdio_scanf_options()
FUNC 1200 ab 0 pre_c_initialization()
FUNC 12b0 8 0 post_pgo_initialization()
FUNC 12c0 12 0 pre_cpp_initialization()
FUNC 12d2 185 0 __scrt_common_main_seh()
FUNC 1460 a 0 wmainCRTStartup(void*)
FUNC 146a 15 0 atexit(void (*)())
FUNC 147f 2e 0 _onexit(int (*)())
FUNC 14ad 97 0 __scrt_is_nonwritable_in_current_image(void const*)
FUNC 1544 32 0 __scrt_acquire_startup_lock()
FUNC 1576 1d 0 __scrt_release_startup_lock(bool)
FUNC 1593 39 0 __scrt_initialize_crt(__scrt_module_type)
FUNC 15cc 28 0 __scrt_uninitialize_crt(bool, bool)
FUNC 15f4 87 0 __scrt_initialize_onexit_tables(__scrt_module_type)
FUNC 167b 42 0 find_pe_section(unsigned char* const, const unsigned int)
FUNC 16bd 4b 0 __security_init_cookie()
FUNC 1708 4d 0 __get_entropy()
FUNC m 1760 3 0 _matherr(_exception*)
FUNC 1763 4 0 _get_startup_argv_mode()
FUNC 1767 6 0 _get_startup_file_mode()
FUNC 176d c 0 __scrt_initialize_type_info()
FUNC m 1779 3 0 _should_initialize_environment()
FUNC 177c 21 0 _initialize_default_precision()
FUNC m 17a0 3 4 _initialize_invalid_parameter_handler()
FUNC 17a3 1d 0 __scrt_initialize_default_local_stdio_options()
FUNC 17c0 c 0 __scrt_is_user_matherr_present(<NoType>)
FUNC 17cc 6 0 __scrt_get_dyn_tls_init_callback(<NoType>)
FUNC 17d2 6 0 __scrt_get_dyn_tls_dtor_callback(<NoType>)
FUNC 17d8 42 0 __scrt_is_managed_app()
FUNC 181a 5 0 __scrt_initialize_mta()
FUNC 181f c 0 __scrt_set_unhandled_exception_filter()
FUNC 182b a 0 __scrt_fastfail(unsigned int)
FUNC 1840 56 4 __scrt_unhandled_exception_filter(_EXCEPTION_POINTERS* const)
FUNC 1896 2c 0 _RTC_Initialize()
FUNC 18d0 2c 0 _RTC_Terminate()
FUNC 1900 45 0 __SEH_prolog4()
FUNC 1950 2f 0 _except_handler4(_EXCEPTION_RECORD*, _EXCEPTION_REGISTRATION_RECORD*, _CONTEXT*, void*)
FUNC 197f 31a 0 __isa_available_init(<NoType>)
FUNC 1c99 c 0 __scrt_is_ucrt_dll_in_use(<NoType>)
FUNC 1cb0 e 4 __security_check_cookie(unsigned int)
FUNC 1cbe 6 0 __report_gsfailure(<NoType>)
FUNC 1cc4 77 0 _filter_x86_sse2_floating_point_exception_default(const long)
PUBLIC 1d3b 0 __current_exception
PUBLIC 1d41 0 __current_exception_context
PUBLIC 1d47 0 _except_handler4_common
PUBLIC 1d4d 0 __p___argc
PUBLIC 1d53 0 __p___wargv
PUBLIC 1d59 0 __p__commode
PUBLIC 1d5f 0 __setusermatherr
PUBLIC 1d65 0 _c_exit
PUBLIC 1d6b 0 _cexit
PUBLIC 1d71 0 _configthreadlocale
PUBLIC 1d77 0 _configure_wide_argv
PUBLIC 1d7d 0 _controlfp_s
PUBLIC 1d83 0 _crt_atexit
PUBLIC 1d89 0 _exit
PUBLIC 1d8f 0 _get_initial_wide_environment
PUBLIC 1d95 0 _initialize_onexit_table
PUBLIC 1d9b 0 _initialize_wide_environment
PUBLIC 1da1 0 _initterm
PUBLIC 1da7 0 _initterm_e
PUBLIC 1dad 0 _register_onexit_function
PUBLIC 1db3 0 _register_thread_local_exe_atexit_callback
PUBLIC 1db9 0 _seh_filter_exe
PUBLIC 1dbf 0 _set_app_type
PUBLIC 1dc5 0 _set_fmode
PUBLIC 1dcb 0 _set_new_mode
PUBLIC 1dd1 0 exit
PUBLIC 1dd7 0 puts
PUBLIC 1ddd 0 terminate
PUBLIC 1dde 0 <unknown in ShowSSEConfig.pdb>
STACK WIN 4 1000 17f 5 0 0 0 0 0 1 $T0 .raSearch = $eip $T0 ^ = $esp $T0 4 + =
STACK WIN 4 1001 17e 4 0 0 4 0 0 1 $T0 .raSearch = $eip $T0 ^ = $esp $T0 4 + = $ebp $T0 4 - ^ =
STACK WIN 4 1003 17c 2 0 0 4 0 0 1 $T0 $ebp 4 + = $eip $T0 ^ = $esp $T0 4 + = $ebp $T0 4 - ^ =
STACK WIN 4 1004 17b 1 0 0 8 0 0 1 $T0 $ebp 4 + = $eip $T0 ^ = $esp $T0 4 + = $ebp $T0 4 - ^ = $edi $T0 8 - ^ =
STACK WIN 4 1005 17a 0 0 0 c 0 0 1 $T0 $ebp 4 + = $eip $T0 ^ = $esp $T0 4 + = $ebp $T0 4 - ^ = $edi $T0 8 - ^ = $esi $T0 12 - ^ =
STACK WIN 4 1180 a 3 0 0 0 0 0 1 $T0 .raSearch = $eip $T0 ^ = $esp $T0 4 + =
STACK WIN 4 1181 9 2 0 0 4 0 0 1 $T0 .raSearch = $eip $T0 ^ = $esp $T0 4 + = $ebp $T0 4 - ^ =
STACK WIN 4 1183 7 0 0 0 4 0 0 1 $T0 $ebp 4 + = $eip $T0 ^ = $esp $T0 4 + = $ebp $T0 4 - ^ =
STACK WIN 4 1190 62 9 0 4 0 0 0 1 $T0 .raSearch = $eip $T0 ^ = $esp $T0 4 + =
STACK WIN 4 1191 61 8 0 4 4 0 0 1 $T0 .raSearch = $eip $T0 ^ = $esp $T0 4 + = $ebp $T0 4 - ^ =
STACK WIN 4 1193 5f 6 0 4 4 0 0 1 $T0 $ebp 4 + = $eip $T0 ^ = $esp $T0 4 + = $ebp $T0 4 - ^ =
STACK WIN 4 1194 5e 5 0 4 8 0 0 1 $T0 $ebp 4 + = $eip $T0 ^ = $esp $T0 4 + = $ebp $T0 4 - ^ = $ebx $T0 8 - ^ =
STACK WIN 4 1195 5d 4 0 4 c 0 0 1 $T0 $ebp 4 + = $eip $T0 ^ = $esp $T0 4 + = $ebp $T0 4 - ^ = $ebx $T0 8 - ^ = $edi $T0 12 - ^ =
STACK WIN 4 1196 5c 3 0 4 10 0 0 1 $T0 $ebp 4 + = $eip $T0 ^ = $esp $T0 4 + = $ebp $T0 4 - ^ = $ebx $T0 8 - ^ = $edi $T0 12 - ^ = $esi $T0 16 - ^ =
STACK WIN 4 11f2 6 0 0 0 0 0 0 1 $T0 .raSearch = $eip $T0 ^ = $esp $T0 4 + =
STACK WIN 4 1200 ab 1 0 0 0 0 0 1 $T0 .raSearch = $eip $T0 ^ = $esp $T0 4 + =
STACK WIN 4 1201 2b 0 0 0 4 0 0 1 $T0 .raSearch = $eip $T0 ^ = $esp $T0 4 + =  $23 $T0 4 - ^ =
STACK WIN 4 12b0 8 0 0 0 0 0 0 1 $T0 .raSearch = $eip $T0 ^ = $esp $T0 4 + =
STACK WIN 4 12c0 12 0 0 0 0 0 0 1 $T0 .raSearch = $eip $T0 ^ = $esp $T0 4 + =
STACK WIN 4 12d2 185 c 0 0 10 24 0 1 $T0 $ebp = $eip $T0 4 + ^ = $ebp $T0 ^ = $esp $T0 8 + =  $20 $T0 40 - ^ =  $23 $T0 44 - ^ =  $24 $T0 48 - ^ =
STACK WIN 4 13fc 14 0 0 0 10 24 0 1 $T0 $ebp = $T2 $esp = $T1 .raSearchStart = $eip $T1 ^ = $ebp $T0 = $esp $T1 4 + =
STACK WIN 4 1460 a 0 0 4 0 0 0 1 $T0 .raSearch = $eip $T0 ^ = $esp $T0 4 + =
STACK WIN 4 146a 15 3 0 4 0 0 0 1 $T0 $ebp = $eip $T0 4 + ^ = $ebp $T0 ^ = $esp $T0 8 + =
STACK WIN 4 147f 2e 3 0 4 0 0 0 1 $T0 $ebp = $eip $T0 4 + ^ = $ebp $T0 ^ = $esp $T0 8 + =
STACK WIN 4 14ad 97 c 0 4 10 18 0 1 $T0 $ebp = $eip $T0 4 + ^ = $ebp $T0 ^ = $esp $T0 8 + =  $20 $T0 28 - ^ =  $23 $T0 32 - ^ =  $24 $T0 36 - ^ =
STACK WIN 4 1515 13 0 0 4 10 18 0 1 $T0 $ebp = $T2 $esp = $T1 .raSearchStart = $eip $T1 ^ = $ebp $T0 = $esp $T1 4 + =
STACK WIN 4 1544 32 1 0 0 0 0 0 1 $T0 .raSearch = $eip $T0 ^ = $esp $T0 4 + =
STACK WIN 4 1545 30 0 0 0 4 0 0 1 $T0 .raSearch = $eip $T0 ^ = $esp $T0 4 + =  $23 $T0 4 - ^ =
STACK WIN 4 1576 1d 3 0 4 0 0 0 1 $T0 $ebp = $eip $T0 4 + ^ = $ebp $T0 ^ = $esp $T0 8 + =
STACK WIN 4 1593 39 3 0 4 0 0 0 1 $T0 $ebp = $eip $T0 4 + ^ = $ebp $T0 ^ = $esp $T0 8 + =
STACK WIN 4 15cc 28 3 0 8 0 0 0 1 $T0 $ebp = $eip $T0 4 + ^ = $ebp $T0 ^ = $esp $T0 8 + =
STACK WIN 4 15f4 87 3 0 4 0 0 0 1 $T0 $ebp = $eip $T0 4 + ^ = $ebp $T0 ^ = $esp $T0 8 + =
STACK WIN 4 1605 6c 0 0 4 4 0 0 1 $T0 $ebp = $eip $T0 4 + ^ = $ebp $T0 ^ = $esp $T0 8 + =  $23 $T0 4 - ^ =
STACK WIN 4 167b 42 7 0 8 0 0 0 1 $T0 $ebp = $eip $T0 4 + ^ = $ebp $T0 ^ = $esp $T0 8 + =
STACK WIN 4 1682 35 0 0 8 4 0 0 1 $T0 $ebp = $eip $T0 4 + ^ = $ebp $T0 ^ = $esp $T0 8 + =  $23 $T0 4 - ^ =
STACK WIN 4 16bd 4b 8 0 0 0 0 0 1 $T0 .raSearch = $eip $T0 ^ = $esp $T0 4 + =
STACK WIN 4 16c4 43 1 0 0 4 0 0 1 $T0 .raSearch = $eip $T0 ^ = $esp $T0 4 + =  $23 $T0 4 - ^ =
STACK WIN 4 16c5 3b 0 0 0 8 0 0 1 $T0 .raSearch = $eip $T0 ^ = $esp $T0 4 + =  $23 $T0 4 - ^ =  $24 $T0 8 - ^ =
STACK WIN 4 1708 4d 6 0 0 0 14 0 1 $T0 $ebp = $eip $T0 4 + ^ = $ebp $T0 ^ = $esp $T0 8 + =
STACK WIN 4 1760 3 0 0 4 0 0 0 1 $T0 .raSearch = $eip $T0 ^ = $esp $T0 4 + =
STACK WIN 4 1763 4 0 0 0 0 0 0 1 $T0 .raSearch = $eip $T0 ^ = $esp $T0 4 + =
STACK WIN 4 1767 6 0 0 0 0 0 0 1 $T0 .raSearch = $eip $T0 ^ = $esp $T0 4 + =
STACK WIN 4 176d c 0 0 0 0 0 0 1 $T0 .raSearch = $eip $T0 ^ = $esp $T0 4 + =
STACK WIN 4 1779 3 0 0 0 0 0 0 1 $T0 .raSearch = $eip $T0 ^ = $esp $T0 4 + =
STACK WIN 4 177c 21 0 0 0 0 0 0 1 $T0 .raSearch = $eip $T0 ^ = $esp $T0 4 + =
STACK WIN 4 17a0 3 0 0 0 0 0 0 1 $T0 .raSearch = $eip $T0 ^ = $esp $T0 4 + =
STACK WIN 4 17a3 1d 0 0 0 0 0 0 1 $T0 .raSearch = $eip $T0 ^ = $esp $T0 4 + =
STACK WIN 4 17c0 c 0 0 0 0 0 0 1 $T0 .raSearch = $eip $T0 ^ = $esp $T0 4 + =
STACK WIN 4 17cc 6 0 0 0 0 0 0 1 $T0 .raSearch = $eip $T0 ^ = $esp $T0 4 + =
STACK WIN 4 17d2 6 0 0 0 0 0 0 1 $T0 .raSearch = $eip $T0 ^ = $esp $T0 4 + =
STACK WIN 4 17d8 42 0 0 0 0 0 0 1 $T0 .raSearch = $eip $T0 ^ = $esp $T0 4 + =
STACK WIN 4 181a 5 0 0 0 0 0 0 1 $T0 .raSearch = $eip $T0 ^ = $esp $T0 4 + =
STACK WIN 4 181f c 0 0 0 0 0 0 1 $T0 .raSearch = $eip $T0 ^ = $esp $T0 4 + =
STACK WIN 4 182b a 3 0 4 0 0 0 1 $T0 $ebp = $eip $T0 4 + ^ = $ebp $T0 ^ = $esp $T0 8 + =
STACK WIN 4 1840 56 5 0 4 0 0 0 1 $T0 $ebp = $eip $T0 4 + ^ = $ebp $T0 ^ = $esp $T0 8 + =
STACK WIN 4 1844 37 1 0 4 4 0 0 1 $T0 $ebp = $eip $T0 4 + ^ = $ebp $T0 ^ = $esp $T0 8 + =  $23 $T0 4 - ^ =
STACK WIN 4 1845 33 0 0 4 8 0 0 1 $T0 $ebp = $eip $T0 4 + ^ = $ebp $T0 ^ = $esp $T0 8 + =  $23 $T0 4 - ^ =  $24 $T0 8 - ^ =
STACK WIN 4 1896 2c 2 0 0 0 0 0 1 $T0 .raSearch = $eip $T0 ^ = $esp $T0 4 + =
STACK WIN 4 1897 2a 1 0 0 4 0 0 1 $T0 .raSearch = $eip $T0 ^ = $esp $T0 4 + =  $20 $T0 4 - ^ =
STACK WIN 4 1898 28 0 0 0 8 0 0 1 $T0 .raSearch = $eip $T0 ^ = $esp $T0 4 + =  $20 $T0 4 - ^ =  $23 $T0 8 - ^ =
STACK WIN 4 18a7 18 0 0 0 c 0 0 1 $T0 .raSearch = $eip $T0 ^ = $esp $T0 4 + =  $20 $T0 4 - ^ =  $23 $T0 8 - ^ =  $24 $T0 12 - ^ =
STACK WIN 4 18d0 2c 2 0 0 0 0 0 1 $T0 .raSearch = $eip $T0 ^ = $esp $T0 4 + =
STACK WIN 4 18d1 2a 1 0 0 4 0 0 1 $T0 .raSearch = $eip $T0 ^ = $esp $T0 4 + =  $20 $T0 4 - ^ =
STACK WIN 4 18d2 28 0 0 0 8 0 0 1 $T0 .raSearch = $eip $T0 ^ = $esp $T0 4 + =  $20 $T0 4 - ^ =  $23 $T0 8 - ^ =
STACK WIN 4 18e1 18 0 0 0 c 0 0 1 $T0 .raSearch = $eip $T0 ^ = $esp $T0 4 + =  $20 $T0 4 - ^ =  $23 $T0 8 - ^ =  $24 $T0 12 - ^ =
STACK WIN 4 1950 2f 4 0 10 0 0 0 1 $T0 $ebp = $eip $T0 4 + ^ = $ebp $T0 ^ = $esp $T0 8 + =
STACK WIN 4 1954 29 0 0 10 4 0 0 1 $T0 $ebp = $eip $T0 4 + ^ = $ebp $T0 ^ = $esp $T0 8 + =  $23 $T0 4 - ^ =
STACK WIN 4 197f 31a d 0 0 0 28 0 1 $T0 $ebp = $eip $T0 4 + ^ = $ebp $T0 ^ = $esp $T0 8 + =
STACK WIN 4 19a7 2ee 0 0 0 4 28 0 1 $T0 $ebp = $eip $T0 4 + ^ = $ebp $T0 ^ = $esp $T0 8 + =  $20 $T0 44 - ^ =
STACK WIN 4 19a8 2ec 0 0 0 8 28 0 1 $T0 $ebp = $eip $T0 4 + ^ = $ebp $T0 ^ = $esp $T0 8 + =  $20 $T0 44 - ^ =  $23 $T0 48 - ^ =
STACK WIN 4 19a9 2ea 0 0 0 c 28 0 1 $T0 $ebp = $eip $T0 4 + ^ = $ebp $T0 ^ = $esp $T0 8 + =  $20 $T0 44 - ^ =  $23 $T0 48 - ^ =  $24 $T0 52 - ^ =
STACK WIN 4 1c99 c 0 0 0 0 0 0 1 $T0 .raSearch = $eip $T0 ^ = $esp $T0 4 + =
STACK WIN 4 1cb0 e 0 0 0 0 0 0 1 $T0 .raSearch = $eip $T0 ^ = $esp $T0 4 + =
STACK WIN 4 1cbe 6 0 0 0 0 0 0 1 $T0 .raSearch = $eip $T0 ^ = $esp $T0 4 + =
STACK WIN 4 1cc4 77 4 0 4 0 4 0 1 $T0 $ebp = $eip $T0 4 + ^ = $ebp $T0 ^ = $esp $T0 8 + =
