MODULE Linux x86_64 8A07C88A3DA44E20A3490D88791183060 ssltunnel
INFO CODE_ID 8AC8078AA43D204EA3490D88791183066C426696
INFO GENERATOR mozilla/dump_syms 2.3.7
PUBLIC 4db0 0 _start
PUBLIC 4dc0 0 _start_main
PUBLIC 4e10 0 __atexit_handler_wrapper
PUBLIC 4e20 0 atexit
PUBLIC 4e40 0 pthread_atfork
PUBLIC 4e50 0 call_fini_array
FUNC 4e90 c7 0 eprintf(char const*, ...)
FUNC 4f60 124 0 strtok2(char*, char const*, char**)
FUNC 5090 88 0 std::__ndk1::vector<server_info_t, std::__ndk1::allocator<server_info_t> >::~vector[abi:dn210000]()
FUNC 5120 10 0 ClientAuthValueComparator(void const*, void const*)
FUNC 5130 29 0 SignalShutdown()
FUNC 5160 492 0 ReadConnectRequest(server_info_t*, relayBuffer&, int*, std::__ndk1::basic_string<char, std::__ndk1::char_traits<char>, std::__ndk1::allocator<char> >&, client_auth_option*, std::__ndk1::basic_string<char, std::__ndk1::char_traits<char>, std::__ndk1::allocator<char> >&, std::__ndk1::basic_string<char, std::__ndk1::char_traits<char>, std::__ndk1::allocator<char> >&, int*)
FUNC 5600 22 0 std::__ndk1::basic_string<char, std::__ndk1::char_traits<char>, std::__ndk1::allocator<char> >::operator=[abi:dn210000](char const*)
FUNC 5630 505 0 ConfigureSSLServerSocket(PRFileDesc*, server_info_t*, std::__ndk1::basic_string<char, std::__ndk1::char_traits<char>, std::__ndk1::allocator<char> > const&, client_auth_option, int)
FUNC 5b40 1e6 0 AdjustWebSocketLocation(relayBuffer&, connection_info_t*)
FUNC 5d30 32f 0 AdjustWebSocketHost(relayBuffer&, connection_info_t*)
FUNC 6060 13c 0 SprintfLiteral<(unsigned long)40>(char (&) [(unsigned long)40], char const*, ...)
FUNC 61a0 182 0 AdjustRequestURI(relayBuffer&, std::__ndk1::basic_string<char, std::__ndk1::char_traits<char>, std::__ndk1::allocator<char> >*)
FUNC 6330 df 0 ConnectSocket(std::__ndk1::unique_ptr<PRFileDesc, mozilla::UniquePRFileDescDeletePolicy>&, PRNetAddr const*, unsigned int)
FUNC 6410 134f 0 HandleConnection(void*)
FUNC 7760 10c 0 std::__ndk1::basic_string<char, std::__ndk1::char_traits<char>, std::__ndk1::allocator<char> >::find[abi:dn210000](char const*, unsigned long) const
FUNC 7870 2a 0 match_hostname(PLHashEntry*, int, void*)
FUNC 78a0 b0 0 snprintf(char*, unsigned long pass_object_size1, char const*, ...)
FUNC 7950 44c 0 StartServer(void*)
FUNC 7da0 13 0 password_func(PK11SlotInfoStr*, int, void*)
FUNC 7dc0 30 0 findServerInfo(int)
FUNC 7df0 5 0 get_ssl3_table(server_info_t*)
FUNC 7e00 5 0 get_tls1_table(server_info_t*)
FUNC 7e10 5 0 get_tls11_table(server_info_t*)
FUNC 7e20 5 0 get_tls12_table(server_info_t*)
FUNC 7e30 5 0 get_tls13_table(server_info_t*)
FUNC 7e40 5 0 get_3des_table(server_info_t*)
FUNC 7e50 5 0 get_failhandshake_table(server_info_t*)
FUNC 7e60 1ac 0 parseWeakCryptoConfig(char* const&, char*&, PLHashTable* (*)(server_info_t*))
FUNC 8010 ce6 0 processConfigLine(char*)
FUNC 8d00 91 0 std::__ndk1::vector<server_info_t, std::__ndk1::allocator<server_info_t> >::push_back[abi:dn210000](server_info_t&&)
FUNC 8da0 2f 0 server_info_t::~server_info_t()
FUNC 8dd0 1ca 0 parseConfigFile(char const*)
FUNC 8fa0 31 0 freeHostCertHashItems(PLHashEntry*, int, void*)
FUNC 8fe0 31 0 freeHostRedirHashItems(PLHashEntry*, int, void*)
FUNC 9020 31 0 freeClientAuthHashItems(PLHashEntry*, int, void*)
FUNC 9060 19 0 freeSSL3HashItems(PLHashEntry*, int, void*)
FUNC 9080 19 0 freeTLSHashItems(PLHashEntry*, int, void*)
FUNC 90a0 19 0 free3DESHashItems(PLHashEntry*, int, void*)
FUNC 90c0 5a2 0 main
FUNC 9670 117 0 std::__ndk1::basic_string<char, std::__ndk1::char_traits<char>, std::__ndk1::allocator<char> >::__assign_external(char const*, unsigned long)
FUNC 9790 27 0 std::__ndk1::basic_string<char, std::__ndk1::char_traits<char>, std::__ndk1::allocator<char> >::__assign_external(char const*)
FUNC 97c0 15 0 std::__ndk1::__throw_length_error[abi:dn210000](char const*)
FUNC 97e0 12 0 std::__throw_bad_array_new_length[abi:dn210000]()
FUNC 9800 16c 0 std::__ndk1::vector<server_info_t, std::__ndk1::allocator<server_info_t> >::__emplace_back_slow_path<server_info_t>(server_info_t&&)
FUNC 9970 10 0 std::__ndk1::vector<server_info_t, std::__ndk1::allocator<server_info_t> >::__throw_length_error[abi:dn210000]()
FUNC 9980 eb 0 std::__ndk1::__uninitialized_allocator_relocate[abi:dn210000]<std::__ndk1::allocator<server_info_t>, server_info_t*>(std::__ndk1::allocator<server_info_t>&, server_info_t*, server_info_t*, server_info_t*)
FUNC 9a6b 55 0 MOZ_ReportAssertionFailure(char const*, char const*, int)
FUNC 9ac0 1d 0 MOZ_ReportAssertionFailurePrintFrame(char const*)
FUNC 9ae0 1 0 mozilla::PrintfTarget::~PrintfTarget()
FUNC 9af0 5 0 mozilla::detail::SprintfAppend::~SprintfAppend()
FUNC 9b00 3d 0 mozilla::detail::SprintfAppend::append(char const*, unsigned long)
FUNC 9b40 3f 0 _GLOBAL__sub_I_ssltunnel.cpp
PUBLIC 9b80 0 <.plt ELF section in ssltunnel>
STACK CFI INIT 4dc0 47 .cfa: $rsp 8 + .ra: .cfa -8 + ^
STACK CFI 4dc1 .cfa: $rsp 16 + $rbp: .cfa -16 + ^
STACK CFI 4dc4 .cfa: $rbp 16 +
STACK CFI INIT 4e10 8 .cfa: $rsp 8 + .ra: .cfa -8 + ^
STACK CFI INIT 4e20 16 .cfa: $rsp 8 + .ra: .cfa -8 + ^
STACK CFI INIT 4e40 c .cfa: $rsp 8 + .ra: .cfa -8 + ^
STACK CFI INIT 4e50 3f .cfa: $rsp 8 + .ra: .cfa -8 + ^
STACK CFI 4e51 .cfa: $rsp 16 + $rbp: .cfa -16 + ^
STACK CFI 4e54 .cfa: $rbp 16 +
STACK CFI 4e57 $rbx: .cfa -32 + ^ $r14: .cfa -24 + ^
STACK CFI 4e8e .cfa: $rsp 8 +
STACK CFI INIT 4e90 c7 .cfa: $rsp 8 + .ra: .cfa -8 + ^
STACK CFI 4e91 .cfa: $rsp 16 + $rbp: .cfa -16 + ^
STACK CFI 4e94 .cfa: $rbp 16 +
STACK CFI 4f51 .cfa: $rsp 8 +
STACK CFI 4f52 .cfa: $rbp 16 +
STACK CFI INIT 4f60 124 .cfa: $rsp 8 + .ra: .cfa -8 + ^
STACK CFI 4f61 .cfa: $rsp 16 + $rbp: .cfa -16 + ^
STACK CFI 4f64 .cfa: $rbp 16 +
STACK CFI 4f6d $rbx: .cfa -40 + ^ $r14: .cfa -32 + ^ $r15: .cfa -24 + ^
STACK CFI 507e .cfa: $rsp 8 +
STACK CFI 507f .cfa: $rbp 16 +
STACK CFI INIT 5090 88 .cfa: $rsp 8 + .ra: .cfa -8 + ^
STACK CFI 5091 .cfa: $rsp 16 + $rbp: .cfa -16 + ^
STACK CFI 5094 .cfa: $rbp 16 +
STACK CFI 509a $rbx: .cfa -40 + ^ $r14: .cfa -32 + ^ $r15: .cfa -24 + ^
STACK CFI 50f3 .cfa: $rsp 8 +
STACK CFI 50f8 .cfa: $rbp 16 +
STACK CFI 5102 .cfa: $rsp 8 +
STACK CFI 5103 .cfa: $rbp 16 +
STACK CFI INIT 5120 10 .cfa: $rsp 8 + .ra: .cfa -8 + ^
STACK CFI INIT 5130 29 .cfa: $rsp 8 + .ra: .cfa -8 + ^
STACK CFI 5131 .cfa: $rsp 16 + $rbp: .cfa -16 + ^
STACK CFI 5134 .cfa: $rbp 16 +
STACK CFI 5154 .cfa: $rsp 8 +
STACK CFI INIT 5160 492 .cfa: $rsp 8 + .ra: .cfa -8 + ^
STACK CFI 5161 .cfa: $rsp 16 + $rbp: .cfa -16 + ^
STACK CFI 5164 .cfa: $rbp 16 +
STACK CFI 5171 $rbx: .cfa -56 + ^ $r12: .cfa -48 + ^ $r13: .cfa -40 + ^ $r14: .cfa -32 + ^ $r15: .cfa -24 + ^
STACK CFI 55c2 .cfa: $rsp 8 +
STACK CFI 55c3 .cfa: $rbp 16 +
STACK CFI INIT 5600 22 .cfa: $rsp 8 + .ra: .cfa -8 + ^
STACK CFI 560a .cfa: $rsp 16 + $rbp: .cfa -16 + ^
STACK CFI 560d .cfa: $rbp 16 +
STACK CFI INIT 5630 505 .cfa: $rsp 8 + .ra: .cfa -8 + ^
STACK CFI 5631 .cfa: $rsp 16 + $rbp: .cfa -16 + ^
STACK CFI 5634 .cfa: $rbp 16 +
STACK CFI 5641 $rbx: .cfa -56 + ^ $r12: .cfa -48 + ^ $r13: .cfa -40 + ^ $r14: .cfa -32 + ^ $r15: .cfa -24 + ^
STACK CFI 5794 .cfa: $rsp 8 +
STACK CFI 5795 .cfa: $rbp 16 +
STACK CFI INIT 5b40 1e6 .cfa: $rsp 8 + .ra: .cfa -8 + ^
STACK CFI 5b41 .cfa: $rsp 16 + $rbp: .cfa -16 + ^
STACK CFI 5b44 .cfa: $rbp 16 +
STACK CFI 5b4e $rbx: .cfa -56 + ^ $r12: .cfa -48 + ^ $r13: .cfa -40 + ^ $r14: .cfa -32 + ^ $r15: .cfa -24 + ^
STACK CFI 5cbd .cfa: $rsp 8 +
STACK CFI 5cbe .cfa: $rbp 16 +
STACK CFI INIT 5d30 32f .cfa: $rsp 8 + .ra: .cfa -8 + ^
STACK CFI 5d31 .cfa: $rsp 16 + $rbp: .cfa -16 + ^
STACK CFI 5d34 .cfa: $rbp 16 +
STACK CFI 5d44 $rbx: .cfa -56 + ^ $r12: .cfa -48 + ^ $r13: .cfa -40 + ^ $r14: .cfa -32 + ^ $r15: .cfa -24 + ^
STACK CFI 5ffc .cfa: $rsp 8 +
STACK CFI 5ffd .cfa: $rbp 16 +
STACK CFI INIT 6060 13c .cfa: $rsp 8 + .ra: .cfa -8 + ^
STACK CFI 6061 .cfa: $rsp 16 + $rbp: .cfa -16 + ^
STACK CFI 6064 .cfa: $rbp 16 +
STACK CFI 6070 $rbx: .cfa -40 + ^ $r14: .cfa -32 + ^ $r15: .cfa -24 + ^
STACK CFI 6171 .cfa: $rsp 8 +
STACK CFI 6172 .cfa: $rbp 16 +
STACK CFI INIT 61a0 182 .cfa: $rsp 8 + .ra: .cfa -8 + ^
STACK CFI 61a1 .cfa: $rsp 16 + $rbp: .cfa -16 + ^
STACK CFI 61a4 .cfa: $rbp 16 +
STACK CFI 61ae $rbx: .cfa -56 + ^ $r12: .cfa -48 + ^ $r13: .cfa -40 + ^ $r14: .cfa -32 + ^ $r15: .cfa -24 + ^
STACK CFI 62b9 .cfa: $rsp 8 +
STACK CFI 62ba .cfa: $rbp 16 +
STACK CFI INIT 6330 df .cfa: $rsp 8 + .ra: .cfa -8 + ^
STACK CFI 6331 .cfa: $rsp 16 + $rbp: .cfa -16 + ^
STACK CFI 6334 .cfa: $rbp 16 +
STACK CFI 633e $rbx: .cfa -32 + ^ $r14: .cfa -24 + ^
STACK CFI 6409 .cfa: $rsp 8 +
STACK CFI 640a .cfa: $rbp 16 +
STACK CFI INIT 6410 134f .cfa: $rsp 8 + .ra: .cfa -8 + ^
STACK CFI 6411 .cfa: $rsp 16 + $rbp: .cfa -16 + ^
STACK CFI 6414 .cfa: $rbp 16 +
STACK CFI 6424 $rbx: .cfa -56 + ^ $r12: .cfa -48 + ^ $r13: .cfa -40 + ^ $r14: .cfa -32 + ^ $r15: .cfa -24 + ^
STACK CFI 7700 .cfa: $rsp 8 +
STACK CFI 7701 .cfa: $rbp 16 +
STACK CFI INIT 7760 10c .cfa: $rsp 8 + .ra: .cfa -8 + ^
STACK CFI 7761 .cfa: $rsp 16 + $rbp: .cfa -16 + ^
STACK CFI 7764 .cfa: $rbp 16 +
STACK CFI 776e $rbx: .cfa -56 + ^ $r12: .cfa -48 + ^ $r13: .cfa -40 + ^ $r14: .cfa -32 + ^ $r15: .cfa -24 + ^
STACK CFI 77f4 .cfa: $rsp 8 +
STACK CFI 77f5 .cfa: $rbp 16 +
STACK CFI INIT 7870 2a .cfa: $rsp 8 + .ra: .cfa -8 + ^
STACK CFI 7871 .cfa: $rsp 16 + $rbp: .cfa -16 + ^
STACK CFI 7874 .cfa: $rbp 16 +
STACK CFI 7876 $rbx: .cfa -24 + ^
STACK CFI 7899 .cfa: $rsp 8 +
STACK CFI INIT 78a0 b0 .cfa: $rsp 8 + .ra: .cfa -8 + ^
STACK CFI 78a1 .cfa: $rsp 16 + $rbp: .cfa -16 + ^
STACK CFI 78a4 .cfa: $rbp 16 +
STACK CFI 794a .cfa: $rsp 8 +
STACK CFI 794b .cfa: $rbp 16 +
STACK CFI INIT 7950 44c .cfa: $rsp 8 + .ra: .cfa -8 + ^
STACK CFI 7951 .cfa: $rsp 16 + $rbp: .cfa -16 + ^
STACK CFI 7954 .cfa: $rbp 16 +
STACK CFI 7964 $rbx: .cfa -56 + ^ $r12: .cfa -48 + ^ $r13: .cfa -40 + ^ $r14: .cfa -32 + ^ $r15: .cfa -24 + ^
STACK CFI 7b03 .cfa: $rsp 8 +
STACK CFI 7b08 .cfa: $rbp 16 +
STACK CFI 7b78 .cfa: $rsp 8 +
STACK CFI 7b79 .cfa: $rbp 16 +
STACK CFI INIT 7da0 13 .cfa: $rsp 8 + .ra: .cfa -8 + ^
STACK CFI INIT 7dc0 30 .cfa: $rsp 8 + .ra: .cfa -8 + ^
STACK CFI INIT 7df0 5 .cfa: $rsp 8 + .ra: .cfa -8 + ^
STACK CFI INIT 7e00 5 .cfa: $rsp 8 + .ra: .cfa -8 + ^
STACK CFI INIT 7e10 5 .cfa: $rsp 8 + .ra: .cfa -8 + ^
STACK CFI INIT 7e20 5 .cfa: $rsp 8 + .ra: .cfa -8 + ^
STACK CFI INIT 7e30 5 .cfa: $rsp 8 + .ra: .cfa -8 + ^
STACK CFI INIT 7e40 5 .cfa: $rsp 8 + .ra: .cfa -8 + ^
STACK CFI INIT 7e50 5 .cfa: $rsp 8 + .ra: .cfa -8 + ^
STACK CFI INIT 7e60 1ac .cfa: $rsp 8 + .ra: .cfa -8 + ^
STACK CFI 7e61 .cfa: $rsp 16 + $rbp: .cfa -16 + ^
STACK CFI 7e64 .cfa: $rbp 16 +
STACK CFI 7e6e $rbx: .cfa -56 + ^ $r12: .cfa -48 + ^ $r13: .cfa -40 + ^ $r14: .cfa -32 + ^ $r15: .cfa -24 + ^
STACK CFI 7fec .cfa: $rsp 8 +
STACK CFI 7fed .cfa: $rbp 16 +
STACK CFI INIT 8010 ce6 .cfa: $rsp 8 + .ra: .cfa -8 + ^
STACK CFI 8011 .cfa: $rsp 16 + $rbp: .cfa -16 + ^
STACK CFI 8014 .cfa: $rbp 16 +
STACK CFI 8024 $rbx: .cfa -56 + ^ $r12: .cfa -48 + ^ $r13: .cfa -40 + ^ $r14: .cfa -32 + ^ $r15: .cfa -24 + ^
STACK CFI 8065 .cfa: $rsp 8 +
STACK CFI 8066 .cfa: $rbp 16 +
STACK CFI INIT 8d00 91 .cfa: $rsp 8 + .ra: .cfa -8 + ^
STACK CFI 8d01 .cfa: $rsp 16 + $rbp: .cfa -16 + ^
STACK CFI 8d04 .cfa: $rbp 16 +
STACK CFI 8d06 $rbx: .cfa -24 + ^
STACK CFI 8d7b .cfa: $rsp 8 +
STACK CFI 8d7c .cfa: $rbp 16 +
STACK CFI INIT 8da0 2f .cfa: $rsp 8 + .ra: .cfa -8 + ^
STACK CFI 8db7 .cfa: $rsp 16 + $rbp: .cfa -16 + ^
STACK CFI 8dba .cfa: $rbp 16 +
STACK CFI INIT 8dd0 1ca .cfa: $rsp 8 + .ra: .cfa -8 + ^
STACK CFI 8dd1 .cfa: $rsp 16 + $rbp: .cfa -16 + ^
STACK CFI 8dd4 .cfa: $rbp 16 +
STACK CFI 8de4 $rbx: .cfa -56 + ^ $r12: .cfa -48 + ^ $r13: .cfa -40 + ^ $r14: .cfa -32 + ^ $r15: .cfa -24 + ^
STACK CFI 8ed7 .cfa: $rsp 8 +
STACK CFI 8ed8 .cfa: $rbp 16 +
STACK CFI INIT 8fa0 31 .cfa: $rsp 8 + .ra: .cfa -8 + ^
STACK CFI 8fa1 .cfa: $rsp 16 + $rbp: .cfa -16 + ^
STACK CFI 8fa4 .cfa: $rbp 16 +
STACK CFI 8fa6 $rbx: .cfa -24 + ^
STACK CFI 8fd0 .cfa: $rsp 8 +
STACK CFI INIT 8fe0 31 .cfa: $rsp 8 + .ra: .cfa -8 + ^
STACK CFI 8fe1 .cfa: $rsp 16 + $rbp: .cfa -16 + ^
STACK CFI 8fe4 .cfa: $rbp 16 +
STACK CFI 8fe6 $rbx: .cfa -24 + ^
STACK CFI 9010 .cfa: $rsp 8 +
STACK CFI INIT 9020 31 .cfa: $rsp 8 + .ra: .cfa -8 + ^
STACK CFI 9021 .cfa: $rsp 16 + $rbp: .cfa -16 + ^
STACK CFI 9024 .cfa: $rbp 16 +
STACK CFI 9026 $rbx: .cfa -24 + ^
STACK CFI 9050 .cfa: $rsp 8 +
STACK CFI INIT 9060 19 .cfa: $rsp 8 + .ra: .cfa -8 + ^
STACK CFI 906a .cfa: $rsp 16 + $rbp: .cfa -16 + ^
STACK CFI 906d .cfa: $rbp 16 +
STACK CFI 9073 .cfa: $rsp 8 +
STACK CFI INIT 9080 19 .cfa: $rsp 8 + .ra: .cfa -8 + ^
STACK CFI 908a .cfa: $rsp 16 + $rbp: .cfa -16 + ^
STACK CFI 908d .cfa: $rbp 16 +
STACK CFI 9093 .cfa: $rsp 8 +
STACK CFI INIT 90a0 19 .cfa: $rsp 8 + .ra: .cfa -8 + ^
STACK CFI 90aa .cfa: $rsp 16 + $rbp: .cfa -16 + ^
STACK CFI 90ad .cfa: $rbp 16 +
STACK CFI 90b3 .cfa: $rsp 8 +
STACK CFI INIT 90c0 5a2 .cfa: $rsp 8 + .ra: .cfa -8 + ^
STACK CFI 90c1 .cfa: $rsp 16 + $rbp: .cfa -16 + ^
STACK CFI 90c4 .cfa: $rbp 16 +
STACK CFI 90ce $rbx: .cfa -56 + ^ $r12: .cfa -48 + ^ $r13: .cfa -40 + ^ $r14: .cfa -32 + ^ $r15: .cfa -24 + ^
STACK CFI 916d .cfa: $rsp 8 +
STACK CFI 916e .cfa: $rbp 16 +
STACK CFI INIT 9670 117 .cfa: $rsp 8 + .ra: .cfa -8 + ^
STACK CFI 9671 .cfa: $rsp 16 + $rbp: .cfa -16 + ^
STACK CFI 9674 .cfa: $rbp 16 +
STACK CFI 967a $rbx: .cfa -40 + ^ $r14: .cfa -32 + ^ $r15: .cfa -24 + ^
STACK CFI 9747 .cfa: $rsp 8 +
STACK CFI 9748 .cfa: $rbp 16 +
STACK CFI INIT 9790 27 .cfa: $rsp 8 + .ra: .cfa -8 + ^
STACK CFI 9791 .cfa: $rsp 16 + $rbp: .cfa -16 + ^
STACK CFI 9794 .cfa: $rbp 16 +
STACK CFI 9797 $rbx: .cfa -32 + ^ $r14: .cfa -24 + ^
STACK CFI 97b2 .cfa: $rsp 8 +
STACK CFI INIT 97c0 15 .cfa: $rsp 8 + .ra: .cfa -8 + ^
STACK CFI 97c1 .cfa: $rsp 16 + $rbp: .cfa -16 + ^
STACK CFI 97c4 .cfa: $rbp 16 +
STACK CFI INIT 97e0 12 .cfa: $rsp 8 + .ra: .cfa -8 + ^
STACK CFI 97e1 .cfa: $rsp 16 + $rbp: .cfa -16 + ^
STACK CFI 97e4 .cfa: $rbp 16 +
STACK CFI INIT 9800 16c .cfa: $rsp 8 + .ra: .cfa -8 + ^
STACK CFI 9801 .cfa: $rsp 16 + $rbp: .cfa -16 + ^
STACK CFI 9804 .cfa: $rbp 16 +
STACK CFI 980e $rbx: .cfa -56 + ^ $r12: .cfa -48 + ^ $r13: .cfa -40 + ^ $r14: .cfa -32 + ^ $r15: .cfa -24 + ^
STACK CFI 994c .cfa: $rsp 8 +
STACK CFI 994d .cfa: $rbp 16 +
STACK CFI INIT 9970 10 .cfa: $rsp 8 + .ra: .cfa -8 + ^
STACK CFI 9971 .cfa: $rsp 16 + $rbp: .cfa -16 + ^
STACK CFI 9974 .cfa: $rbp 16 +
STACK CFI INIT 9980 eb .cfa: $rsp 8 + .ra: .cfa -8 + ^
STACK CFI 9981 .cfa: $rsp 16 + $rbp: .cfa -16 + ^
STACK CFI 9984 .cfa: $rbp 16 +
STACK CFI 9987 $rbx: .cfa -32 + ^ $r14: .cfa -24 + ^
STACK CFI 9a2b .cfa: $rsp 8 +
STACK CFI 9a2c .cfa: $rbp 16 +
STACK CFI INIT 9a6b 55 .cfa: $rsp 8 + .ra: .cfa -8 + ^
STACK CFI 9a6c .cfa: $rsp 16 + $rbp: .cfa -16 + ^
STACK CFI 9a6f .cfa: $rbp 16 +
STACK CFI 9abb .cfa: $rsp 8 +
STACK CFI INIT 9ac0 1d .cfa: $rsp 8 + .ra: .cfa -8 + ^
STACK CFI INIT 9ae0 1 .cfa: $rsp 8 + .ra: .cfa -8 + ^
STACK CFI INIT 9af0 5 .cfa: $rsp 8 + .ra: .cfa -8 + ^
STACK CFI INIT 9b00 3d .cfa: $rsp 8 + .ra: .cfa -8 + ^
STACK CFI 9b06 .cfa: $rsp 16 + $rbp: .cfa -16 + ^
STACK CFI 9b09 .cfa: $rbp 16 +
STACK CFI 9b0c $rbx: .cfa -32 + ^ $r14: .cfa -24 + ^
STACK CFI 9b3a .cfa: $rsp 8 +
STACK CFI INIT 9b40 3f .cfa: $rsp 8 + .ra: .cfa -8 + ^
STACK CFI 9b41 .cfa: $rsp 16 + $rbp: .cfa -16 + ^
STACK CFI 9b44 .cfa: $rbp 16 +
STACK CFI 9b46 $rbx: .cfa -24 + ^
STACK CFI 9b7a .cfa: $rsp 8 +
