MODULE Linux x86_64 B2E65520F14FB5332E38A5A5189839AD0 c++filt
INFO CODE_ID 2055E6B24FF133B52E38A5A5189839AD0C7BD1CC
INFO GENERATOR mozilla/dump_syms 2.3.7
PUBLIC 2000 0 _init
PUBLIC 2020 0 <.plt ELF section in c++filt>
PUBLIC 2410 0 <.plt.got ELF section in c++filt>
PUBLIC 2420 0 <.plt.sec ELF section in c++filt>
FUNC m 2800 1f 0 bfd_get_archive_filename
FUNC m 2820 2d3 0 main
FUNC m 2b00 26 0 _start
PUBLIC 2b30 0 deregister_tm_clones
PUBLIC 2b60 0 register_tm_clones
PUBLIC 2ba0 0 __do_global_dtors_aux
PUBLIC 2be0 0 frame_dummy
FUNC m 2bf0 14e 0 usage
FUNC m 2d40 b3 0 demangle_it
FUNC m 2e00 97 0 template_in_dir
FUNC m 2ea0 4b 0 endian_string
FUNC m 2ef0 9a 0 bfd_nonfatal
FUNC m 2f90 1d2 0 do_display_target
FUNC m 3170 17 0 bfd_fatal
FUNC m 3190 6a 0 report
FUNC m 3200 ab 0 fatal
FUNC m 32b0 ba 0 non_fatal
FUNC m 3370 1b 0 bfd_xalloc
FUNC m 3390 59 0 set_default_bfd_target
FUNC m 33f0 a3 0 list_matching_formats
FUNC m 34a0 d2 0 list_supported_targets
FUNC m 3580 d2 0 list_supported_architectures
FUNC m 3660 373 0 display_info
FUNC m 39e0 1a8 0 print_arelt_descr
FUNC m 3b90 46 0 make_tempname
FUNC m 3be0 50 0 make_tempdir
FUNC m 3c30 76 0 parse_vma
FUNC m 3cb0 12c 0 get_file_size
FUNC m 3de0 ee 0 bfd_get_archive_filename
FUNC m 3ed0 1e5 0 bfd_nonfatal_message
FUNC m 40c0 97 0 is_valid_archive_path
FUNC m 4160 70 0 print_version
FUNC m 41d0 17d 0 mode_string
FUNC m 4360 aa 0 dupargv
FUNC m 4410 41 0 freeargv
FUNC m 4460 2ed 0 buildargv
FUNC m 4750 fe 0 writeargv
FUNC m 4850 3d4 0 expandargv
FUNC m 4c30 31 0 countargv
PUBLIC 4c64 0 _fini
STACK CFI INIT 2b00 26 .cfa: $rsp 8 + .ra: .cfa -8 + ^
STACK CFI INIT 2020 3f0 .cfa: $rsp 16 + .ra: .cfa -8 + ^
STACK CFI 2026 .cfa: $rsp 24 +
STACK CFI INIT 2410 10 .cfa: $rsp 8 + .ra: .cfa -8 + ^
STACK CFI INIT 2420 3e0 .cfa: $rsp 8 + .ra: .cfa -8 + ^
STACK CFI INIT 2bf0 14e .cfa: $rsp 8 + .ra: .cfa -8 + ^
STACK CFI 2bf1 .cfa: $rsp 16 + $rbp: .cfa -16 + ^
STACK CFI 2bfd .cfa: $rbp 16 +
STACK CFI 2bff $r13: .cfa -24 + ^
STACK CFI 2c09 $r12: .cfa -32 + ^
STACK CFI 2c11 $rbx: .cfa -40 + ^
STACK CFI INIT 2d40 b3 .cfa: $rsp 8 + .ra: .cfa -8 + ^
STACK CFI 2d41 .cfa: $rsp 16 + $rbp: .cfa -16 + ^
STACK CFI 2d44 .cfa: $rbp 16 +
STACK CFI 2d47 $r12: .cfa -24 + ^ $rbx: .cfa -32 + ^
STACK CFI 2da6 .cfa: $rsp 8 +
STACK CFI 2db0 .cfa: $rbp 16 +
STACK CFI 2dd5 .cfa: $rsp 8 +
STACK CFI 2de0 .cfa: $rbp 16 +
STACK CFI INIT 2820 2d3 .cfa: $rsp 8 + .ra: .cfa -8 + ^
STACK CFI 2825 .cfa: $rsp 16 + $rbp: .cfa -16 + ^
STACK CFI 2828 .cfa: $rbp 16 +
STACK CFI 2831 $r15: .cfa -24 + ^ $r14: .cfa -32 + ^ $r13: .cfa -40 + ^ $r12: .cfa -48 + ^ $rbx: .cfa -56 + ^
STACK CFI 28c4 .cfa: $rsp 8 +
STACK CFI 28c5 .cfa: $rbp 16 +
STACK CFI INIT 2e00 97 .cfa: $rsp 8 + .ra: .cfa -8 + ^
STACK CFI 2e01 .cfa: $rsp 16 + $rbp: .cfa -16 + ^
STACK CFI 2e09 .cfa: $rbp 16 +
STACK CFI 2e0b $r14: .cfa -24 + ^
STACK CFI 2e13 $r13: .cfa -32 + ^ $r12: .cfa -40 + ^ $rbx: .cfa -48 + ^
STACK CFI 2e79 .cfa: $rsp 8 +
STACK CFI 2e80 .cfa: $rbp 16 +
STACK CFI INIT 2ea0 4b .cfa: $rsp 8 + .ra: .cfa -8 + ^
STACK CFI INIT 2ef0 9a .cfa: $rsp 8 + .ra: .cfa -8 + ^
STACK CFI 2ef5 .cfa: $rsp 16 + $rbp: .cfa -16 + ^
STACK CFI 2ef8 .cfa: $rbp 16 +
STACK CFI 2efa $r12: .cfa -24 + ^
STACK CFI 2efe $rbx: .cfa -32 + ^
STACK CFI 2f54 .cfa: $rsp 8 +
STACK CFI 2f60 .cfa: $rbp 16 +
STACK CFI 2f85 .cfa: $rsp 8 +
STACK CFI INIT 2f90 1d2 .cfa: $rsp 8 + .ra: .cfa -8 + ^
STACK CFI 2f95 .cfa: $rsp 16 + $rbp: .cfa -16 + ^
STACK CFI 2f98 .cfa: $rbp 16 +
STACK CFI 2f9c $r15: .cfa -24 + ^ $r14: .cfa -32 + ^
STACK CFI 2fa1 $r13: .cfa -40 + ^
STACK CFI 2fab $r12: .cfa -48 + ^ $rbx: .cfa -56 + ^
STACK CFI 30c6 .cfa: $rsp 8 +
STACK CFI 30d0 .cfa: $rbp 16 +
STACK CFI 314c .cfa: $rsp 8 +
STACK CFI 314d .cfa: $rbp 16 +
STACK CFI INIT 3170 17 .cfa: $rsp 8 + .ra: .cfa -8 + ^
STACK CFI 3175 .cfa: $rsp 16 + $rbp: .cfa -16 + ^
STACK CFI 3178 .cfa: $rbp 16 +
STACK CFI INIT 3190 6a .cfa: $rsp 8 + .ra: .cfa -8 + ^
STACK CFI 3195 .cfa: $rsp 16 + $rbp: .cfa -16 + ^
STACK CFI 3198 .cfa: $rbp 16 +
STACK CFI 319a $r12: .cfa -24 + ^
STACK CFI 319e $rbx: .cfa -32 + ^
STACK CFI 31f5 .cfa: $rsp 8 +
STACK CFI INIT 3200 ab .cfa: $rsp 8 + .ra: .cfa -8 + ^
STACK CFI 3205 .cfa: $rsp 16 + $rbp: .cfa -16 + ^
STACK CFI 3208 .cfa: $rbp 16 +
STACK CFI INIT 32b0 ba .cfa: $rsp 8 + .ra: .cfa -8 + ^
STACK CFI 32b5 .cfa: $rsp 16 + $rbp: .cfa -16 + ^
STACK CFI 32b8 .cfa: $rbp 16 +
STACK CFI 3364 .cfa: $rsp 8 +
STACK CFI 3365 .cfa: $rbp 16 +
STACK CFI INIT 3370 1b .cfa: $rsp 8 + .ra: .cfa -8 + ^
STACK CFI 3375 .cfa: $rsp 16 + $rbp: .cfa -16 + ^
STACK CFI 3378 .cfa: $rbp 16 +
STACK CFI 3383 .cfa: $rsp 8 +
STACK CFI 3384 .cfa: $rbp 16 +
STACK CFI INIT 3390 59 .cfa: $rsp 8 + .ra: .cfa -8 + ^
STACK CFI 3395 .cfa: $rsp 16 + $rbp: .cfa -16 + ^
STACK CFI 339f .cfa: $rbp 16 +
STACK CFI 33a4 $rbx: .cfa -24 + ^
STACK CFI 33b2 .cfa: $rsp 8 +
STACK CFI 33b3 .cfa: $rbp 16 +
STACK CFI INIT 33f0 a3 .cfa: $rsp 8 + .ra: .cfa -8 + ^
STACK CFI 33f5 .cfa: $rsp 16 + $rbp: .cfa -16 + ^
STACK CFI 33f8 .cfa: $rbp 16 +
STACK CFI 33fa $r12: .cfa -24 + ^
STACK CFI 3405 $rbx: .cfa -32 + ^
STACK CFI 348e .cfa: $rsp 8 +
STACK CFI INIT 34a0 d2 .cfa: $rsp 8 + .ra: .cfa -8 + ^
STACK CFI 34a5 .cfa: $rsp 16 + $rbp: .cfa -16 + ^
STACK CFI 34a8 .cfa: $rbp 16 +
STACK CFI 34ac $r13: .cfa -24 + ^ $r12: .cfa -32 + ^
STACK CFI 34b4 $rbx: .cfa -40 + ^
STACK CFI 353d .cfa: $rsp 8 +
STACK CFI 3548 .cfa: $rbp 16 +
STACK CFI INIT 3580 d2 .cfa: $rsp 8 + .ra: .cfa -8 + ^
STACK CFI 3585 .cfa: $rsp 16 + $rbp: .cfa -16 + ^
STACK CFI 3588 .cfa: $rbp 16 +
STACK CFI 358c $r13: .cfa -24 + ^ $r12: .cfa -32 + ^
STACK CFI 3594 $rbx: .cfa -40 + ^
STACK CFI 361c .cfa: $rsp 8 +
STACK CFI 3628 .cfa: $rbp 16 +
STACK CFI INIT 3660 373 .cfa: $rsp 8 + .ra: .cfa -8 + ^
STACK CFI 3665 .cfa: $rsp 16 + $rbp: .cfa -16 + ^
STACK CFI 3671 .cfa: $rbp 16 +
STACK CFI 367e $r15: .cfa -24 + ^ $r14: .cfa -32 + ^ $r13: .cfa -40 + ^ $r12: .cfa -48 + ^ $rbx: .cfa -56 + ^
STACK CFI 3727 .cfa: $rsp 8 +
STACK CFI 3728 .cfa: $rbp 16 +
STACK CFI INIT 39e0 1a8 .cfa: $rsp 8 + .ra: .cfa -8 + ^
STACK CFI 39e5 .cfa: $rsp 16 + $rbp: .cfa -16 + ^
STACK CFI 39e8 .cfa: $rbp 16 +
STACK CFI 39ee $r14: .cfa -24 + ^ $r13: .cfa -32 + ^ $r12: .cfa -40 + ^
STACK CFI 39f2 $rbx: .cfa -48 + ^
STACK CFI 3a8c .cfa: $rsp 8 +
STACK CFI 3a90 .cfa: $rbp 16 +
STACK CFI INIT 3b90 46 .cfa: $rsp 8 + .ra: .cfa -8 + ^
STACK CFI 3b95 .cfa: $rsp 16 + $rbp: .cfa -16 + ^
STACK CFI 3b98 .cfa: $rbp 16 +
STACK CFI 3b9a $r12: .cfa -24 + ^
STACK CFI 3b9e $rbx: .cfa -32 + ^
STACK CFI 3bbe .cfa: $rsp 8 +
STACK CFI 3bc0 .cfa: $rbp 16 +
STACK CFI INIT 3be0 50 .cfa: $rsp 8 + .ra: .cfa -8 + ^
STACK CFI 3be5 .cfa: $rsp 16 + $rbp: .cfa -16 + ^
STACK CFI 3be8 .cfa: $rbp 16 +
STACK CFI 3bed $rbx: .cfa -24 + ^
STACK CFI 3c07 .cfa: $rsp 8 +
STACK CFI 3c10 .cfa: $rbp 16 +
STACK CFI 3c2f .cfa: $rsp 8 +
STACK CFI INIT 3c30 76 .cfa: $rsp 8 + .ra: .cfa -8 + ^
STACK CFI 3c35 .cfa: $rsp 16 + $rbp: .cfa -16 + ^
STACK CFI 3c3a .cfa: $rbp 16 +
STACK CFI 3c3d $r14: .cfa -24 + ^ $rbx: .cfa -32 + ^
STACK CFI 3c7d .cfa: $rsp 8 +
STACK CFI 3c7e .cfa: $rbp 16 +
STACK CFI INIT 3cb0 12c .cfa: $rsp 8 + .ra: .cfa -8 + ^
STACK CFI 3cb5 .cfa: $rsp 16 + $rbp: .cfa -16 + ^
STACK CFI 3cb8 .cfa: $rbp 16 +
STACK CFI 3cc2 $r14: .cfa -24 + ^ $rbx: .cfa -32 + ^
STACK CFI 3d39 .cfa: $rsp 8 +
STACK CFI 3d40 .cfa: $rbp 16 +
STACK CFI INIT 3de0 ee .cfa: $rsp 8 + .ra: .cfa -8 + ^
STACK CFI 3de5 .cfa: $rsp 16 + $rbp: .cfa -16 + ^
STACK CFI 3de8 .cfa: $rbp 16 +
STACK CFI 3df1 $r14: .cfa -24 + ^ $r12: .cfa -32 + ^ $rbx: .cfa -40 + ^
STACK CFI 3e79 .cfa: $rsp 8 +
STACK CFI 3e80 .cfa: $rbp 16 +
STACK CFI INIT 2800 1f .cfa: $rbp 16 + .ra: .cfa -8 + ^ $rbx: .cfa -40 + ^ $rbp: .cfa -16 + ^ $r12: .cfa -32 + ^ $r14: .cfa -24 + ^
STACK CFI INIT 3ed0 1e5 .cfa: $rsp 8 + .ra: .cfa -8 + ^
STACK CFI 3ed5 .cfa: $rsp 16 + $rbp: .cfa -16 + ^
STACK CFI 3ed8 .cfa: $rbp 16 +
STACK CFI 3eda $r15: .cfa -24 + ^
STACK CFI 3edf $r14: .cfa -32 + ^
STACK CFI 3ee4 $r13: .cfa -40 + ^
STACK CFI 3eea $r12: .cfa -48 + ^ $rbx: .cfa -56 + ^
STACK CFI 4087 .cfa: $rsp 8 +
STACK CFI 4090 .cfa: $rbp 16 +
STACK CFI INIT 40c0 97 .cfa: $rsp 8 + .ra: .cfa -8 + ^
STACK CFI INIT 4160 70 .cfa: $rsp 8 + .ra: .cfa -8 + ^
STACK CFI 4165 .cfa: $rsp 16 + $rbp: .cfa -16 + ^
STACK CFI 4180 .cfa: $rbp 16 +
STACK CFI INIT 41d0 17d .cfa: $rsp 8 + .ra: .cfa -8 + ^
STACK CFI INIT 4360 aa .cfa: $rsp 8 + .ra: .cfa -8 + ^
STACK CFI 4365 .cfa: $rsp 16 + $rbp: .cfa -16 + ^
STACK CFI 4368 .cfa: $rbp 16 +
STACK CFI 4371 $r13: .cfa -24 + ^ $r12: .cfa -32 + ^ $rbx: .cfa -40 + ^
STACK CFI 43ee .cfa: $rsp 8 +
STACK CFI 43f0 .cfa: $rbp 16 +
STACK CFI INIT 4410 41 .cfa: $rsp 8 + .ra: .cfa -8 + ^
STACK CFI 441a .cfa: $rsp 16 + $rbp: .cfa -16 + ^
STACK CFI 441d .cfa: $rbp 16 +
STACK CFI 441f $r12: .cfa -24 + ^
STACK CFI 4423 $rbx: .cfa -32 + ^
STACK CFI 4449 .cfa: $rsp 8 +
STACK CFI INIT 4460 2ed .cfa: $rsp 8 + .ra: .cfa -8 + ^
STACK CFI 4465 .cfa: $rsp 16 + $rbp: .cfa -16 + ^
STACK CFI 4468 .cfa: $rbp 16 +
STACK CFI 446c $r15: .cfa -24 + ^ $r14: .cfa -32 + ^
STACK CFI 4478 $r13: .cfa -40 + ^ $r12: .cfa -48 + ^ $rbx: .cfa -56 + ^
STACK CFI 4577 .cfa: $rsp 8 +
STACK CFI 4580 .cfa: $rbp 16 +
STACK CFI INIT 4750 fe .cfa: $rsp 8 + .ra: .cfa -8 + ^
STACK CFI 4755 .cfa: $rsp 16 + $rbp: .cfa -16 + ^
STACK CFI 4758 .cfa: $rbp 16 +
STACK CFI 4765 $r15: .cfa -24 + ^ $r14: .cfa -32 + ^ $r13: .cfa -40 + ^ $r12: .cfa -48 + ^ $rbx: .cfa -56 + ^
STACK CFI 47fd .cfa: $rsp 8 +
STACK CFI 4800 .cfa: $rbp 16 +
STACK CFI INIT 4850 3d4 .cfa: $rsp 8 + .ra: .cfa -8 + ^
STACK CFI 4855 .cfa: $rsp 16 + $rbp: .cfa -16 + ^
STACK CFI 4858 .cfa: $rbp 16 +
STACK CFI 4868 $r15: .cfa -24 + ^ $r14: .cfa -32 + ^ $r13: .cfa -40 + ^ $r12: .cfa -48 + ^ $rbx: .cfa -56 + ^
STACK CFI 4b60 .cfa: $rsp 8 +
STACK CFI 4b68 .cfa: $rbp 16 +
STACK CFI INIT 4c30 31 .cfa: $rsp 8 + .ra: .cfa -8 + ^
