MODULE windows x86_64 293A285ED25871934C4C44205044422E1 qipcap64.pdb
INFO CODE_ID 6A4806059000 qipcap64.dll
INFO GENERATOR mozilla/dump_syms 2.2.0
FUNC 1000 19 0 DllMain(void*, unsigned long, void*)
FUNC 101c 116 0 dllmain_crt_process_attach(HINSTANCE__* const, void* const)
FUNC 1134 84 0 dllmain_crt_process_detach(const bool)
FUNC 11c0 50 0 dllmain_crt_dispatch(HINSTANCE__* const, const unsigned long, void* const)
FUNC 1210 131 0 dllmain_dispatch(HINSTANCE__* const, const unsigned long, void* const)
FUNC 1350 3d 0 _DllMainCRTStartup(HINSTANCE__* const, const unsigned long, void* const)
FUNC 1390 ac 0 __security_init_cookie()
FUNC 143c e 0 __scrt_initialize_type_info()
FUNC 144c c 0 __scrt_uninitialize_type_info()
FUNC 1458 1b 0 __scrt_initialize_default_local_stdio_options()
FUNC 1474 8 0 __local_stdio_printf_options()
FUNC 147c 8 0 __local_stdio_scanf_options()
FUNC 1484 98 0 __scrt_is_nonwritable_in_current_image(void const*)
FUNC 151c 39 0 __scrt_acquire_startup_lock()
FUNC 1558 24 0 __scrt_release_startup_lock(bool)
FUNC 157c 49 0 __scrt_initialize_crt(__scrt_module_type)
FUNC 15c8 29 0 __scrt_uninitialize_crt(bool, bool)
FUNC 15f4 8b 0 __scrt_initialize_onexit_tables(__scrt_module_type)
FUNC 1680 60 0 __scrt_dllmain_exception_filter(HINSTANCE__*, unsigned long, void*, int (*)(HINSTANCE__*, unsigned long, void*), unsigned long, _EXCEPTION_POINTERS*)
FUNC 16e0 15 0 __scrt_dllmain_before_initialize_c()
FUNC 16f8 34 0 __scrt_dllmain_after_initialize_c()
FUNC 172c 30 0 __scrt_dllmain_uninitialize_c()
FUNC 175c 14 0 __scrt_dllmain_uninitialize_critical()
FUNC 1770 28 0 __scrt_dllmain_crt_thread_attach()
FUNC 1798 15 0 __scrt_dllmain_crt_thread_detach()
FUNC 17b0 8 0 __scrt_get_dyn_tls_init_callback(<NoType>)
FUNC 17b8 8 0 __crt_debugger_hook(int)
FUNC 17c0 14b 0 __scrt_fastfail(unsigned int)
FUNC 190c 3c 0 _RTC_Initialize()
FUNC 1948 3c 0 _RTC_Terminate()
FUNC 1990 3 0 _guard_check_icall_nop(unsigned long long)
FUNC 1994 1a1 0 __isa_available_init(<NoType>)
FUNC 1b38 6 0 _get_startup_argv_mode()
FUNC 1b40 c 0 __scrt_is_ucrt_dll_in_use(<NoType>)
FUNC m 1b50 3 0 __scrt_stub_for_acrt_initialize()
FUNC 1b54 3 0 __scrt_stub_for_is_c_termination_complete()
FUNC 1b70 2 0 _guard_dispatch_icall_nop()
FUNC 1b90 6 0 _guard_xfg_dispatch_icall_nop()
FUNC 1b96 17 0 `dllmain_crt_process_attach'::`1'::fin$0
FUNC 1bad 19 0 `dllmain_crt_process_detach'::`1'::fin$0
FUNC 1bc6 14 0 `dllmain_crt_process_detach'::`1'::fin$1
FUNC 1bda 36 0 `dllmain_dispatch'::`1'::filt$0
FUNC 1c10 18 0 __scrt_is_nonwritable_in_current_image$filt$0
PUBLIC 1c30 0 _C_specific_handler
PUBLIC 1c40 0 _std_type_info_destroy_list
PUBLIC 1c50 0 memset
PUBLIC 1c60 0 cexit
PUBLIC 1c70 0 configure_narrow_argv
PUBLIC 1c80 0 execute_onexit_table
PUBLIC 1c90 0 initialize_narrow_environment
PUBLIC 1ca0 0 initialize_onexit_table
PUBLIC 1cb0 0 initterm
PUBLIC 1cc0 0 initterm_e
PUBLIC 1cd0 0 seh_filter_dll
PUBLIC 1cd1 0 <unknown in qipcap64.pdb>
STACK CFI INIT 1000 19 .cfa: $rsp 48 + .ra: .cfa 8 - ^
STACK CFI INIT 101c 116 .cfa: $rsp 48 + $r14: .cfa 16 - ^ $rbx: .cfa 0 - ^ $rsi: .cfa -8 - ^ $rdi: .cfa -24 - ^ .ra: .cfa 8 - ^
STACK CFI INIT 1134 84 .cfa: $rsp 64 + $rdi: .cfa 16 - ^ $rbx: .cfa 0 - ^ .ra: .cfa 8 - ^
STACK CFI INIT 11c0 50 .cfa: $rsp 48 + .ra: .cfa 8 - ^
STACK CFI INIT 1210 131 .cfa: $rsp 96 + $rsi: .cfa 16 - ^ $rdi: .cfa 24 - ^ $r14: .cfa 32 - ^ $rbx: .cfa -24 - ^ .ra: .cfa 8 - ^
STACK CFI INIT 1350 3d .cfa: $rsp 48 + $rdi: .cfa 16 - ^ $rbx: .cfa 0 - ^ $rsi: .cfa -8 - ^ .ra: .cfa 8 - ^
STACK CFI INIT 1390 ac .cfa: $rsp 48 + $rbp: .cfa 16 - ^ $rbx: .cfa -24 - ^ .ra: .cfa 8 - ^
STACK CFI INIT 1458 1b .cfa: $rsp 48 + .ra: .cfa 8 - ^
STACK CFI INIT 1484 98 .cfa: $rsp 32 + .ra: .cfa 8 - ^
STACK CFI INIT 151c 39 .cfa: $rsp 48 + .ra: .cfa 8 - ^
STACK CFI INIT 1558 24 .cfa: $rsp 48 + $rbx: .cfa 16 - ^ .ra: .cfa 8 - ^
STACK CFI INIT 157c 49 .cfa: $rsp 48 + $rbx: .cfa 16 - ^ .ra: .cfa 8 - ^
STACK CFI INIT 15c8 29 .cfa: $rsp 48 + $rbx: .cfa 16 - ^ .ra: .cfa 8 - ^
STACK CFI INIT 15f4 8b .cfa: $rsp 48 + $rbx: .cfa 16 - ^ .ra: .cfa 8 - ^
STACK CFI INIT 1680 60 .cfa: $rsp 48 + $rdi: .cfa 16 - ^ $rbx: .cfa 0 - ^ $rbp: .cfa -8 - ^ $rsi: .cfa -16 - ^ .ra: .cfa 8 - ^
STACK CFI INIT 16e0 15 .cfa: $rsp 48 + .ra: .cfa 8 - ^
STACK CFI INIT 16f8 34 .cfa: $rsp 48 + .ra: .cfa 8 - ^
STACK CFI INIT 172c 30 .cfa: $rsp 48 + .ra: .cfa 8 - ^
STACK CFI INIT 175c 14 .cfa: $rsp 48 + .ra: .cfa 8 - ^
STACK CFI INIT 1770 28 .cfa: $rsp 48 + .ra: .cfa 8 - ^
STACK CFI INIT 1798 15 .cfa: $rsp 48 + .ra: .cfa 8 - ^
STACK CFI INIT 17c0 14b .cfa: $rsp 1488 + $rbp: .cfa 16 - ^ $rbx: .cfa 0 - ^ .ra: .cfa 8 - ^
STACK CFI INIT 190c 3c .cfa: $rsp 48 + $rdi: .cfa 16 - ^ $rbx: .cfa 0 - ^ .ra: .cfa 8 - ^
STACK CFI INIT 1948 3c .cfa: $rsp 48 + $rdi: .cfa 16 - ^ $rbx: .cfa 0 - ^ .ra: .cfa 8 - ^
STACK CFI INIT 1994 1a1 .cfa: $rsp 32 + $rdi: .cfa 16 - ^ $rbx: .cfa -8 - ^ $rsi: .cfa -16 - ^ .ra: .cfa 8 - ^
STACK CFI INIT 1b70 2 .cfa: $rsp 8 + .ra: .cfa 8 - ^
STACK CFI INIT 1b90 6 .cfa: $rsp 8 + .ra: .cfa 8 - ^
STACK CFI INIT 1b96 17 .cfa: $rsp 48 + $rbp: .cfa 16 - ^ .ra: .cfa 8 - ^
STACK CFI INIT 1bad 19 .cfa: $rsp 48 + $rbp: .cfa 16 - ^ .ra: .cfa 8 - ^
STACK CFI INIT 1bc6 14 .cfa: $rsp 48 + $rbp: .cfa 16 - ^ .ra: .cfa 8 - ^
STACK CFI INIT 1bda 36 .cfa: $rsp 64 + $rbp: .cfa 16 - ^ .ra: .cfa 8 - ^
STACK CFI INIT 1c10 18 .cfa: $rsp 16 + $rbp: .cfa 16 - ^ .ra: .cfa 8 - ^
